target datalayout = "e-m:e-p270:32:32-p271:32:32-p272:64:64-i64:64-i128:128-f80:128-n8:16:32:64-S128"
target triple = "x86_64-pc-linux-gnu"

%struct._typeobject = type { %struct.PyVarObject, ptr, i64, i64, ptr, i64, ptr, ptr, ptr, ptr, ptr, ptr, ptr, ptr, ptr, ptr, ptr, ptr, ptr, i64, ptr, ptr, ptr, ptr, i64, ptr, ptr, ptr, ptr, ptr, ptr, ptr, ptr, ptr, i64, ptr, ptr, ptr, ptr, ptr, ptr, ptr, ptr, ptr, ptr, ptr, i32, ptr, ptr, i8, i16 }
%struct.PyVarObject = type { %struct._object, i64 }
%struct._object = type { %union.anon, ptr }
%union.anon = type { i64 }
%struct.anon = type { i32, i32 }
%struct.ProfilerObject = type { %struct._object, ptr, ptr, ptr, i32, ptr, double, i32, ptr }

@.str.35 = private unnamed_addr constant [49 x i8] c"Exception ignored while calling _lsprof timer %R\00", align 1

; Function Attrs: inlinehint nounwind uwtable
define internal i32 @PyType_HasFeature(ptr noundef %0, i64 noundef %1) #1 {
  %3 = alloca ptr, align 8
  %4 = alloca i64, align 8
  %5 = alloca i64, align 8
  store ptr %0, ptr %3, align 8, !tbaa !20
  store i64 %1, ptr %4, align 8, !tbaa !40
  call void @llvm.lifetime.start.p0(i64 8, ptr %5) #6
  %6 = load ptr, ptr %3, align 8, !tbaa !20
  %7 = getelementptr inbounds nuw %struct._typeobject, ptr %6, i32 0, i32 19
  %8 = load i64, ptr %7, align 8, !tbaa !103
  store i64 %8, ptr %5, align 8, !tbaa !40
  %9 = load i64, ptr %5, align 8, !tbaa !40
  %10 = load i64, ptr %4, align 8, !tbaa !40
  %11 = and i64 %9, %10
  %12 = icmp ne i64 %11, 0
  %13 = zext i1 %12 to i32
  call void @llvm.lifetime.end.p0(i64 8, ptr %5) #6
  ret i32 %13
}

; Function Attrs: inlinehint nounwind uwtable
define internal ptr @_Py_TYPE(ptr noundef %0) #1 {
  %2 = alloca ptr, align 8
  store ptr %0, ptr %2, align 8, !tbaa !3
  %3 = load ptr, ptr %2, align 8, !tbaa !3
  %4 = getelementptr inbounds nuw %struct._object, ptr %3, i32 0, i32 1
  %5 = load ptr, ptr %4, align 8, !tbaa !23
  ret ptr %5
}

; Function Attrs: inlinehint nounwind uwtable
define internal i64 @_PyVectorcall_NARGS(i64 noundef %0) #1 {
  %2 = alloca i64, align 8
  store i64 %0, ptr %2, align 8, !tbaa !40
  %3 = load i64, ptr %2, align 8, !tbaa !40
  %4 = and i64 %3, 9223372036854775807
  ret i64 %4
}

; Function Attrs: inlinehint nounwind uwtable
define internal ptr @_PyVectorcall_FunctionInline(ptr noundef %0) #1 {
  %2 = alloca ptr, align 8
  %3 = alloca ptr, align 8
  %4 = alloca ptr, align 8
  %5 = alloca i32, align 4
  %6 = alloca i64, align 8
  %7 = alloca ptr, align 8
  store ptr %0, ptr %3, align 8, !tbaa !3
  call void @llvm.lifetime.start.p0(i64 8, ptr %4) #6
  %8 = load ptr, ptr %3, align 8, !tbaa !3
  %9 = call ptr @_Py_TYPE(ptr noundef %8)
  store ptr %9, ptr %4, align 8, !tbaa !20
  %10 = load ptr, ptr %4, align 8, !tbaa !20
  %11 = call i32 @PyType_HasFeature(ptr noundef %10, i64 noundef 2048)
  %12 = icmp ne i32 %11, 0
  br i1 %12, label %14, label %13

13:                                               ; preds = %1
  store ptr null, ptr %2, align 8
  store i32 1, ptr %5, align 4
  br label %22

14:                                               ; preds = %1
  call void @llvm.lifetime.start.p0(i64 8, ptr %6) #6
  %15 = load ptr, ptr %4, align 8, !tbaa !20
  %16 = getelementptr inbounds nuw %struct._typeobject, ptr %15, i32 0, i32 5
  %17 = load i64, ptr %16, align 8, !tbaa !102
  store i64 %17, ptr %6, align 8, !tbaa !40
  call void @llvm.lifetime.start.p0(i64 8, ptr %7) #6
  %18 = load ptr, ptr %3, align 8, !tbaa !3
  %19 = load i64, ptr %6, align 8, !tbaa !40
  %20 = getelementptr i8, ptr %18, i64 %19
  call void @llvm.memcpy.p0.p0.i64(ptr align 8 %7, ptr align 1 %20, i64 8, i1 false)
  %21 = load ptr, ptr %7, align 8, !tbaa !24
  store ptr %21, ptr %2, align 8
  store i32 1, ptr %5, align 4
  call void @llvm.lifetime.end.p0(i64 8, ptr %7) #6
  call void @llvm.lifetime.end.p0(i64 8, ptr %6) #6
  br label %22

22:                                               ; preds = %14, %13
  call void @llvm.lifetime.end.p0(i64 8, ptr %4) #6
  %23 = load ptr, ptr %2, align 8
  ret ptr %23
}

; Function Attrs: alwaysinline nounwind uwtable
define internal i32 @_Py_IsImmortal(ptr noundef %0) #2 {
  %2 = alloca ptr, align 8
  store ptr %0, ptr %2, align 8, !tbaa !3
  %3 = load ptr, ptr %2, align 8, !tbaa !3
  %4 = getelementptr inbounds nuw %struct._object, ptr %3, i32 0, i32 0
  %5 = getelementptr inbounds nuw %struct.anon, ptr %4, i32 0, i32 0
  %6 = load i32, ptr %5, align 8, !tbaa !21
  %7 = icmp slt i32 %6, 0
  %8 = zext i1 %7 to i32
  ret i32 %8
}

; Function Attrs: inlinehint nounwind uwtable
define internal ptr @_PyObject_VectorcallTstate(ptr noundef %0, ptr noundef %1, ptr noundef %2, i64 noundef %3, ptr noundef %4) #1 {
  %6 = alloca ptr, align 8
  %7 = alloca ptr, align 8
  %8 = alloca ptr, align 8
  %9 = alloca ptr, align 8
  %10 = alloca i64, align 8
  %11 = alloca ptr, align 8
  %12 = alloca ptr, align 8
  %13 = alloca ptr, align 8
  %14 = alloca i64, align 8
  %15 = alloca i32, align 4
  store ptr %0, ptr %7, align 8, !tbaa !36
  store ptr %1, ptr %8, align 8, !tbaa !3
  store ptr %2, ptr %9, align 8, !tbaa !42
  store i64 %3, ptr %10, align 8, !tbaa !40
  store ptr %4, ptr %11, align 8, !tbaa !3
  call void @llvm.lifetime.start.p0(i64 8, ptr %12) #6
  call void @llvm.lifetime.start.p0(i64 8, ptr %13) #6
  %16 = load ptr, ptr %8, align 8, !tbaa !3
  %17 = call ptr @_PyVectorcall_FunctionInline(ptr noundef %16)
  store ptr %17, ptr %12, align 8, !tbaa !24
  %18 = load ptr, ptr %12, align 8, !tbaa !24
  %19 = icmp eq ptr %18, null
  br i1 %19, label %20, label %29

20:                                               ; preds = %5
  call void @llvm.lifetime.start.p0(i64 8, ptr %14) #6
  %21 = load i64, ptr %10, align 8, !tbaa !40
  %22 = call i64 @_PyVectorcall_NARGS(i64 noundef %21)
  store i64 %22, ptr %14, align 8, !tbaa !40
  %23 = load ptr, ptr %7, align 8, !tbaa !36
  %24 = load ptr, ptr %8, align 8, !tbaa !3
  %25 = load ptr, ptr %9, align 8, !tbaa !42
  %26 = load i64, ptr %14, align 8, !tbaa !40
  %27 = load ptr, ptr %11, align 8, !tbaa !3
  %28 = call ptr @_PyObject_MakeTpCall(ptr noundef %23, ptr noundef %24, ptr noundef %25, i64 noundef %26, ptr noundef %27)
  store ptr %28, ptr %6, align 8
  store i32 1, ptr %15, align 4
  call void @llvm.lifetime.end.p0(i64 8, ptr %14) #6
  br label %40

29:                                               ; preds = %5
  %30 = load ptr, ptr %12, align 8, !tbaa !24
  %31 = load ptr, ptr %8, align 8, !tbaa !3
  %32 = load ptr, ptr %9, align 8, !tbaa !42
  %33 = load i64, ptr %10, align 8, !tbaa !40
  %34 = load ptr, ptr %11, align 8, !tbaa !3
  %35 = call ptr %30(ptr noundef %31, ptr noundef %32, i64 noundef %33, ptr noundef %34)
  store ptr %35, ptr %13, align 8, !tbaa !3
  %36 = load ptr, ptr %7, align 8, !tbaa !36
  %37 = load ptr, ptr %8, align 8, !tbaa !3
  %38 = load ptr, ptr %13, align 8, !tbaa !3
  %39 = call ptr @_Py_CheckFunctionResult(ptr noundef %36, ptr noundef %37, ptr noundef %38, ptr noundef null)
  store ptr %39, ptr %6, align 8
  store i32 1, ptr %15, align 4
  br label %40

40:                                               ; preds = %29, %20
  call void @llvm.lifetime.end.p0(i64 8, ptr %13) #6
  call void @llvm.lifetime.end.p0(i64 8, ptr %12) #6
  %41 = load ptr, ptr %6, align 8
  ret ptr %41
}

; Function Attrs: inlinehint nounwind uwtable
define internal ptr @_PyThreadState_GET() #1 {
  %1 = call ptr @_PyThreadState_GetCurrent()
  ret ptr %1
}

; Function Attrs: alwaysinline nounwind uwtable
define internal void @Py_DECREF(ptr noundef %0) #2 {
  %2 = alloca ptr, align 8
  store ptr %0, ptr %2, align 8, !tbaa !3
  %3 = load ptr, ptr %2, align 8, !tbaa !3
  %4 = call i32 @_Py_IsImmortal(ptr noundef %3)
  %5 = icmp ne i32 %4, 0
  br i1 %5, label %6, label %7

6:                                                ; preds = %1
  br label %16

7:                                                ; preds = %1
  %8 = load ptr, ptr %2, align 8, !tbaa !3
  %9 = getelementptr inbounds nuw %struct._object, ptr %8, i32 0, i32 0
  %10 = getelementptr inbounds nuw %struct.anon, ptr %9, i32 0, i32 0
  %11 = load i32, ptr %10, align 8, !tbaa !21
  %12 = add i32 %11, -1
  store i32 %12, ptr %10, align 8, !tbaa !21
  %13 = icmp eq i32 %12, 0
  br i1 %13, label %14, label %16

14:                                               ; preds = %7
  %15 = load ptr, ptr %2, align 8, !tbaa !3
  call void @_Py_Dealloc(ptr noundef %15)
  br label %16

16:                                               ; preds = %6, %14, %7
  ret void
}

; Function Attrs: inlinehint nounwind uwtable
define internal ptr @_PyObject_CallNoArgs(ptr noundef %0) #1 {
  %2 = alloca ptr, align 8
  %3 = alloca ptr, align 8
  store ptr %0, ptr %2, align 8, !tbaa !3
  call void @llvm.lifetime.start.p0(i64 8, ptr %3) #6
  %4 = call ptr @_PyThreadState_GET()
  store ptr %4, ptr %3, align 8, !tbaa !36
  %5 = load ptr, ptr %3, align 8, !tbaa !36
  %6 = load ptr, ptr %2, align 8, !tbaa !3
  %7 = call ptr @_PyObject_VectorcallTstate(ptr noundef %5, ptr noundef %6, ptr noundef null, i64 noundef 0, ptr noundef null)
  call void @llvm.lifetime.end.p0(i64 8, ptr %3) #6
  ret ptr %7
}

; Function Attrs: nounwind uwtable
define internal i64 @CallExternalTimer(ptr noundef %0) #0 {
  %2 = alloca i64, align 8
  %3 = alloca ptr, align 8
  %4 = alloca ptr, align 8
  %5 = alloca i32, align 4
  %6 = alloca i64, align 8
  %7 = alloca i32, align 4
  store ptr %0, ptr %3, align 8, !tbaa !24
  call void @llvm.lifetime.start.p0(i64 8, ptr %4) #6
  store ptr null, ptr %4, align 8, !tbaa !3
  %8 = load ptr, ptr %3, align 8, !tbaa !24
  %9 = getelementptr inbounds nuw %struct.ProfilerObject, ptr %8, i32 0, i32 4
  %10 = load i32, ptr %9, align 8, !tbaa !31
  %11 = or i32 %10, 8
  store i32 %11, ptr %9, align 8, !tbaa !31
  %12 = load ptr, ptr %3, align 8, !tbaa !24
  %13 = getelementptr inbounds nuw %struct.ProfilerObject, ptr %12, i32 0, i32 5
  %14 = load ptr, ptr %13, align 8, !tbaa !38
  %15 = call ptr @_PyObject_CallNoArgs(ptr noundef %14)
  store ptr %15, ptr %4, align 8, !tbaa !3
  %16 = load ptr, ptr %3, align 8, !tbaa !24
  %17 = getelementptr inbounds nuw %struct.ProfilerObject, ptr %16, i32 0, i32 4
  %18 = load i32, ptr %17, align 8, !tbaa !31
  %19 = and i32 %18, -9
  store i32 %19, ptr %17, align 8, !tbaa !31
  %20 = load ptr, ptr %4, align 8, !tbaa !3
  %21 = icmp eq ptr %20, null
  br i1 %21, label %22, label %26

22:                                               ; preds = %1
  %23 = load ptr, ptr %3, align 8, !tbaa !24
  %24 = getelementptr inbounds nuw %struct.ProfilerObject, ptr %23, i32 0, i32 5
  %25 = load ptr, ptr %24, align 8, !tbaa !38
  call void (ptr, ...) @PyErr_FormatUnraisable(ptr noundef @.str.35, ptr noundef %25)
  store i64 0, ptr %2, align 8
  store i32 1, ptr %5, align 4
  br label %48

26:                                               ; preds = %1
  call void @llvm.lifetime.start.p0(i64 8, ptr %6) #6
  call void @llvm.lifetime.start.p0(i64 4, ptr %7) #6
  %27 = load ptr, ptr %3, align 8, !tbaa !24
  %28 = getelementptr inbounds nuw %struct.ProfilerObject, ptr %27, i32 0, i32 6
  %29 = load double, ptr %28, align 8, !tbaa !46
  %30 = fcmp ogt double %29, 0.000000e+00
  br i1 %30, label %31, label %34

31:                                               ; preds = %26
  %32 = load ptr, ptr %4, align 8, !tbaa !3
  %33 = call i32 @_PyTime_FromLong(ptr noundef %6, ptr noundef %32)
  store i32 %33, ptr %7, align 4, !tbaa !22
  br label %37

34:                                               ; preds = %26
  %35 = load ptr, ptr %4, align 8, !tbaa !3
  %36 = call i32 @_PyTime_FromSecondsObject(ptr noundef %6, ptr noundef %35, i32 noundef 0)
  store i32 %36, ptr %7, align 4, !tbaa !22
  br label %37

37:                                               ; preds = %34, %31
  %38 = load ptr, ptr %4, align 8, !tbaa !3
  call void @Py_DECREF(ptr noundef %38)
  %39 = load i32, ptr %7, align 4, !tbaa !22
  %40 = icmp slt i32 %39, 0
  br i1 %40, label %41, label %45

41:                                               ; preds = %37
  %42 = load ptr, ptr %3, align 8, !tbaa !24
  %43 = getelementptr inbounds nuw %struct.ProfilerObject, ptr %42, i32 0, i32 5
  %44 = load ptr, ptr %43, align 8, !tbaa !38
  call void (ptr, ...) @PyErr_FormatUnraisable(ptr noundef @.str.35, ptr noundef %44)
  store i64 0, ptr %2, align 8
  store i32 1, ptr %5, align 4
  br label %47

45:                                               ; preds = %37
  %46 = load i64, ptr %6, align 8, !tbaa !40
  store i64 %46, ptr %2, align 8
  store i32 1, ptr %5, align 4
  br label %47

47:                                               ; preds = %45, %41
  call void @llvm.lifetime.end.p0(i64 4, ptr %7) #6
  call void @llvm.lifetime.end.p0(i64 8, ptr %6) #6
  br label %48

48:                                               ; preds = %47, %22
  call void @llvm.lifetime.end.p0(i64 8, ptr %4) #6
  %49 = load i64, ptr %2, align 8
  ret i64 %49
}

; Function Attrs: inlinehint nounwind uwtable
define internal i64 @call_timer(ptr noundef %0) #1 {
  %2 = alloca i64, align 8
  %3 = alloca ptr, align 8
  %4 = alloca i64, align 8
  store ptr %0, ptr %3, align 8, !tbaa !24
  %5 = load ptr, ptr %3, align 8, !tbaa !24
  %6 = getelementptr inbounds nuw %struct.ProfilerObject, ptr %5, i32 0, i32 5
  %7 = load ptr, ptr %6, align 8, !tbaa !38
  %8 = icmp ne ptr %7, null
  br i1 %8, label %9, label %12

9:                                                ; preds = %1
  %10 = load ptr, ptr %3, align 8, !tbaa !24
  %11 = call i64 @CallExternalTimer(ptr noundef %10)
  store i64 %11, ptr %2, align 8
  br label %15

12:                                               ; preds = %1
  call void @llvm.lifetime.start.p0(i64 8, ptr %4) #6
  %13 = call i32 @PyTime_PerfCounterRaw(ptr noundef %4)
  %14 = load i64, ptr %4, align 8, !tbaa !40
  store i64 %14, ptr %2, align 8
  call void @llvm.lifetime.end.p0(i64 8, ptr %4) #6
  br label %15

15:                                               ; preds = %12, %9
  %16 = load i64, ptr %2, align 8
  ret i64 %16
}