; Function Attrs: inlinehint nounwind uwtable
define internal fastcc i64 @call_timer(ptr noundef captures(none) %0) unnamed_addr #3 {
  %2 = alloca i64, align 8
  %3 = alloca i64, align 8
  %4 = getelementptr inbounds nuw i8, ptr %0, i64 48
  %5 = load ptr, ptr %4, align 8, !tbaa !41
  %.not = icmp eq ptr %5, null
  br i1 %.not, label %47, label %6

6:                                                ; preds = %1
  %7 = getelementptr inbounds nuw i8, ptr %0, i64 40
  %8 = load i32, ptr %7, align 8, !tbaa !26
  %9 = or i32 %8, 8
  store i32 %9, ptr %7, align 8, !tbaa !26
  %10 = tail call ptr @_PyThreadState_GetCurrent() #5
  %11 = getelementptr i8, ptr %5, i64 8
  %.val.i.i.i.i = load ptr, ptr %11, align 8, !tbaa !3
  %12 = getelementptr i8, ptr %.val.i.i.i.i, i64 168
  %.val6.i.i.i.i = load i64, ptr %12, align 8, !tbaa !96
  %13 = and i64 %.val6.i.i.i.i, 2048
  %.not.i.i.i.i = icmp eq i64 %13, 0
  br i1 %.not.i.i.i.i, label %_PyVectorcall_FunctionInline.exit.thread.i.i.i, label %_PyVectorcall_FunctionInline.exit.i.i.i

_PyVectorcall_FunctionInline.exit.i.i.i:          ; preds = %6
  %14 = getelementptr inbounds nuw i8, ptr %.val.i.i.i.i, i64 56
  %15 = load i64, ptr %14, align 8, !tbaa !97
  %16 = getelementptr i8, ptr %5, i64 %15
  %.0.copyload.i.i.i.i = load ptr, ptr %16, align 1
  %17 = icmp eq ptr %.0.copyload.i.i.i.i, null
  br i1 %17, label %_PyVectorcall_FunctionInline.exit.thread.i.i.i, label %19

_PyVectorcall_FunctionInline.exit.thread.i.i.i:   ; preds = %_PyVectorcall_FunctionInline.exit.i.i.i, %6
  %18 = tail call ptr @_PyObject_MakeTpCall(ptr noundef %10, ptr noundef nonnull %5, ptr noundef null, i64 noundef 0, ptr noundef null) #5
  br label %_PyObject_CallNoArgs.exit.i

19:                                               ; preds = %_PyVectorcall_FunctionInline.exit.i.i.i
  %20 = tail call ptr %.0.copyload.i.i.i.i(ptr noundef nonnull %5, ptr noundef null, i64 noundef 0, ptr noundef null) #5
  %21 = tail call ptr @_Py_CheckFunctionResult(ptr noundef %10, ptr noundef nonnull %5, ptr noundef %20, ptr noundef null) #5
  br label %_PyObject_CallNoArgs.exit.i

_PyObject_CallNoArgs.exit.i:                      ; preds = %19, %_PyVectorcall_FunctionInline.exit.thread.i.i.i
  %.0.i.i.i = phi ptr [ %18, %_PyVectorcall_FunctionInline.exit.thread.i.i.i ], [ %21, %19 ]
  %22 = load i32, ptr %7, align 8, !tbaa !26
  %23 = and i32 %22, -9
  store i32 %23, ptr %7, align 8, !tbaa !26
  %24 = icmp eq ptr %.0.i.i.i, null
  br i1 %24, label %25, label %27

25:                                               ; preds = %_PyObject_CallNoArgs.exit.i
  %26 = load ptr, ptr %4, align 8, !tbaa !41
  tail call void (ptr, ...) @PyErr_FormatUnraisable(ptr noundef nonnull @.str.35, ptr noundef %26) #5
  br label %CallExternalTimer.exit

27:                                               ; preds = %_PyObject_CallNoArgs.exit.i
  call void @llvm.lifetime.start.p0(i64 8, ptr nonnull %2) #5
  %28 = getelementptr inbounds nuw i8, ptr %0, i64 56
  %29 = load double, ptr %28, align 8, !tbaa !51
  %30 = fcmp ogt double %29, 0.000000e+00
  br i1 %30, label %31, label %33

31:                                               ; preds = %27
  %32 = call i32 @_PyTime_FromLong(ptr noundef nonnull %2, ptr noundef nonnull %.0.i.i.i) #5
  br label %35

33:                                               ; preds = %27
  %34 = call i32 @_PyTime_FromSecondsObject(ptr noundef nonnull %2, ptr noundef nonnull %.0.i.i.i, i32 noundef 0) #5
  br label %35

35:                                               ; preds = %33, %31
  %.0.i = phi i32 [ %32, %31 ], [ %34, %33 ]
  %36 = load i32, ptr %.0.i.i.i, align 8, !tbaa !9
  %.not.i.i = icmp sgt i32 %36, -1
  br i1 %.not.i.i, label %37, label %Py_DECREF.exit.i

37:                                               ; preds = %35
  %38 = add nsw i32 %36, -1
  store i32 %38, ptr %.0.i.i.i, align 8, !tbaa !9
  %39 = icmp eq i32 %38, 0
  br i1 %39, label %40, label %Py_DECREF.exit.i

40:                                               ; preds = %37
  call void @_Py_Dealloc(ptr noundef nonnull %.0.i.i.i) #5
  br label %Py_DECREF.exit.i

Py_DECREF.exit.i:                                 ; preds = %40, %37, %35
  %41 = icmp slt i32 %.0.i, 0
  br i1 %41, label %42, label %44

42:                                               ; preds = %Py_DECREF.exit.i
  %43 = load ptr, ptr %4, align 8, !tbaa !41
  call void (ptr, ...) @PyErr_FormatUnraisable(ptr noundef nonnull @.str.35, ptr noundef %43) #5
  br label %46

44:                                               ; preds = %Py_DECREF.exit.i
  %45 = load i64, ptr %2, align 8, !tbaa !94
  br label %46

46:                                               ; preds = %44, %42
  %.1.i = phi i64 [ 0, %42 ], [ %45, %44 ]
  call void @llvm.lifetime.end.p0(i64 8, ptr nonnull %2) #5
  br label %CallExternalTimer.exit

47:                                               ; preds = %1
  call void @llvm.lifetime.start.p0(i64 8, ptr nonnull %3) #5
  %48 = call i32 @PyTime_PerfCounterRaw(ptr noundef nonnull %3) #5
  %49 = load i64, ptr %3, align 8, !tbaa !94
  call void @llvm.lifetime.end.p0(i64 8, ptr nonnull %3) #5
  br label %CallExternalTimer.exit

CallExternalTimer.exit:                           ; preds = %46, %25, %47
  %.0 = phi i64 [ %49, %47 ], [ 0, %25 ], [ %.1.i, %46 ]
  ret i64 %.0
}